; Function Attrs: mustprogress uwtable
define hidden noundef zeroext i1 @_ZNK8seq_util13is_const_charEP4exprRj(ptr noundef nonnull readonly align 8 captures(none) dereferenceable(136) %0, ptr noundef readonly captures(none) %1, ptr noundef nonnull writeonly align 4 captures(none) dereferenceable(4) %2) local_unnamed_addr #3 align 2 {
  %4 = getelementptr inbounds nuw i8, ptr %0, i64 16
  %5 = load ptr, ptr %4, align 8, !tbaa !218
  %6 = getelementptr inbounds nuw i8, ptr %5, i64 16
  %7 = load i32, ptr %6, align 8, !tbaa !10
  %8 = getelementptr inbounds nuw i8, ptr %1, i64 4
  %9 = load i32, ptr %8, align 4
  %10 = and i32 %9, 65535
  %11 = icmp eq i32 %10, 0
  br i1 %11, label %12, label %_ZNK16char_decl_plugin13is_const_charEPK4exprRj.exit

12:                                               ; preds = %3
  %13 = getelementptr inbounds nuw i8, ptr %1, i64 16
  %14 = load ptr, ptr %13, align 8, !tbaa !186
  %15 = getelementptr inbounds nuw i8, ptr %14, i64 24
  %16 = load ptr, ptr %15, align 8, !tbaa !41
  %.not.i.i.i.i = icmp eq ptr %16, null
  br i1 %.not.i.i.i.i, label %_ZNK16char_decl_plugin13is_const_charEPK4exprRj.exit, label %_Z9is_app_ofPK4exprii.exit.i

_Z9is_app_ofPK4exprii.exit.i:                     ; preds = %12
  %17 = load i32, ptr %16, align 8, !tbaa !44
  %18 = icmp eq i32 %17, %7
  %19 = getelementptr inbounds nuw i8, ptr %16, i64 4
  %20 = load i32, ptr %19, align 4
  %21 = icmp eq i32 %20, 0
  %22 = select i1 %18, i1 %21, i1 false
  br i1 %22, label %23, label %_ZNK16char_decl_plugin13is_const_charEPK4exprRj.exit

23:                                               ; preds = %_Z9is_app_ofPK4exprii.exit.i
  %24 = getelementptr inbounds nuw i8, ptr %16, i64 8
  %25 = load ptr, ptr %24, align 8, !tbaa !49
  %26 = getelementptr inbounds nuw i8, ptr %25, i64 8
  %27 = load i8, ptr %26, align 8, !tbaa !50
  %.not.i.i.i4.i = icmp eq i8 %27, 0
  br i1 %.not.i.i.i4.i, label %_ZNK9parameter7get_intEv.exit.i, label %28

28:                                               ; preds = %23
  %29 = tail call ptr @__cxa_allocate_exception(i64 16) #26
  store ptr getelementptr inbounds nuw inrange(-16, 24) (i8, ptr @_ZTVSt18bad_variant_access, i64 16), ptr %29, align 8, !tbaa !11
  %30 = getelementptr inbounds nuw i8, ptr %29, i64 8
  store ptr @.str.179, ptr %30, align 8, !tbaa !54
  tail call void @__cxa_throw(ptr nonnull %29, ptr nonnull @_ZTISt18bad_variant_access, ptr nonnull @_ZNSt9exceptionD2Ev) #28
  unreachable

_ZNK9parameter7get_intEv.exit.i:                  ; preds = %23
  %31 = load i32, ptr %25, align 4, !tbaa !29
  store i32 %31, ptr %2, align 4, !tbaa !29
  br label %_ZNK16char_decl_plugin13is_const_charEPK4exprRj.exit

_ZNK16char_decl_plugin13is_const_charEPK4exprRj.exit: ; preds = %3, %12, %_Z9is_app_ofPK4exprii.exit.i, %_ZNK9parameter7get_intEv.exit.i
  %32 = phi i1 [ true, %_ZNK9parameter7get_intEv.exit.i ], [ false, %_Z9is_app_ofPK4exprii.exit.i ], [ false, %3 ], [ false, %12 ]
  ret i1 %32
}